; Function Attrs: mustprogress uwtable
define void @_ZNK9grpc_core18HandshakerRegistry14AddHandshakersENS_14HandshakerTypeERKNS_11ChannelArgsEP16grpc_pollset_setPNS_16HandshakeManagerE(ptr noundef nonnull readonly align 8 captures(none) dereferenceable(48) %0, i32 noundef %1, ptr noundef nonnull align 8 dereferenceable(8) %2, ptr noundef %3, ptr noundef %4) local_unnamed_addr #3 align 2 {
  %6 = zext i32 %1 to i64
  %7 = getelementptr inbounds nuw [2 x %"class.std::vector"], ptr %0, i64 0, i64 %6
  %8 = load ptr, ptr %7, align 8, !tbaa !3
  %9 = getelementptr inbounds nuw i8, ptr %7, i64 8
  %10 = load ptr, ptr %9, align 8, !tbaa !3
  %.not10 = icmp eq ptr %8, %10
  br i1 %.not10, label %._crit_edge, label %.lr.ph

._crit_edge:                                      ; preds = %.lr.ph, %5
  ret void

.lr.ph:                                           ; preds = %5, %.lr.ph
  %.sroa.07.011 = phi ptr [ %14, %.lr.ph ], [ %8, %5 ]
  %11 = load ptr, ptr %.sroa.07.011, align 8, !tbaa !8
  %12 = load ptr, ptr %11, align 8, !tbaa !10
  %13 = load ptr, ptr %12, align 8
  tail call void %13(ptr noundef nonnull align 8 dereferenceable(8) %11, ptr noundef nonnull align 8 dereferenceable(8) %2, ptr noundef %3, ptr noundef %4)
  %14 = getelementptr inbounds nuw i8, ptr %.sroa.07.011, i64 8
  %.not = icmp eq ptr %14, %10
  br i1 %.not, label %._crit_edge, label %.lr.ph
}